; Function Attrs: mustprogress uwtable
define hidden void @_ZN4cvc58internal8decision12JustifyCacheC2EPNS_7context7ContextEPNS0_4prop14CDCLTSatSolverEPNS6_9CnfStreamE(ptr noundef nonnull align 8 dereferenceable(72) %0, ptr noundef %1, ptr noundef %2, ptr noundef %3) unnamed_addr #4 align 2 personality ptr @__gxx_personality_v0 {
  tail call void @_ZN4cvc57context10ContextObjC2EPNS0_7ContextE(ptr noundef nonnull align 8 dereferenceable(56) %0, ptr noundef %1)
  store ptr getelementptr inbounds nuw inrange(-16, 32) (i8, ptr @_ZTVN4cvc57context15CDInsertHashMapINS_8internal12NodeTemplateILb1EEENS2_4prop8SatValueESt4hashIS4_EEE, i64 16), ptr %0, align 8, !tbaa !3
  %5 = tail call noalias noundef nonnull dereferenceable(136) ptr @_Znwm(i64 noundef 136) #20
  tail call void @llvm.memset.p0.i64(ptr noundef nonnull align 8 dereferenceable(136) %5, i8 0, i64 136, i1 false)
  invoke void @_ZNSt11_Deque_baseIN4cvc58internal12NodeTemplateILb1EEESaIS3_EE17_M_initialize_mapEm(ptr noundef nonnull align 8 dereferenceable(136) %5, i64 noundef 0)
          to label %_ZN4cvc57context15CDInsertHashMapINS_8internal12NodeTemplateILb1EEENS2_4prop8SatValueESt4hashIS4_EEC2EPNS0_7ContextE.exit unwind label %6

6:                                                ; preds = %4
  %7 = landingpad { ptr, i32 }
          cleanup
  tail call void @_ZdlPvm(ptr noundef nonnull %5, i64 noundef 136) #21
  resume { ptr, i32 } %7

_ZN4cvc57context15CDInsertHashMapINS_8internal12NodeTemplateILb1EEENS2_4prop8SatValueESt4hashIS4_EEC2EPNS0_7ContextE.exit: ; preds = %4
  %8 = getelementptr inbounds nuw i8, ptr %5, i64 80
  %9 = getelementptr inbounds nuw i8, ptr %5, i64 128
  store ptr %9, ptr %8, align 8, !tbaa !6
  %10 = getelementptr inbounds nuw i8, ptr %5, i64 88
  store i64 1, ptr %10, align 8, !tbaa !16
  %11 = getelementptr inbounds nuw i8, ptr %5, i64 96
  %12 = getelementptr inbounds nuw i8, ptr %5, i64 112
  tail call void @llvm.memset.p0.i64(ptr noundef nonnull align 8 dereferenceable(16) %11, i8 0, i64 16, i1 false)
  store float 1.000000e+00, ptr %12, align 8, !tbaa !17
  %13 = getelementptr inbounds nuw i8, ptr %5, i64 120
  tail call void @llvm.memset.p0.i64(ptr noundef nonnull align 8 dereferenceable(16) %13, i8 0, i64 16, i1 false)
  %14 = getelementptr inbounds nuw i8, ptr %0, i64 40
  store ptr %5, ptr %14, align 8, !tbaa !18
  %15 = getelementptr inbounds nuw i8, ptr %0, i64 48
  store i64 0, ptr %15, align 8, !tbaa !25
  %16 = getelementptr inbounds nuw i8, ptr %0, i64 56
  store ptr %2, ptr %16, align 8, !tbaa !26
  %17 = getelementptr inbounds nuw i8, ptr %0, i64 64
  store ptr %3, ptr %17, align 8, !tbaa !30
  ret void
}